target datalayout = "e-m:e-p270:32:32-p271:32:32-p272:64:64-i64:64-i128:128-f80:128-n8:16:32:64-S128"
target triple = "x86_64-pc-linux-gnu"

%struct.lua_State = type { %struct.GCRef, i8, i8, i8, i8, %struct.MRef, %struct.GCRef, ptr, ptr, %struct.MRef, %struct.MRef, %struct.GCRef, %struct.GCRef, ptr, i32 }
%struct.MRef = type { i64 }
%struct.GCRef = type { i64 }
%union.TValue = type { i64 }
%struct.GCcdata = type { %struct.GCRef, i8, i8, i16 }

; Function Attrs: nounwind uwtable
define hidden i32 @lj_lib_checkintrange(ptr noundef %0, i32 noundef %1, i32 noundef %2, i32 noundef %3) #0 {
  %5 = alloca i32, align 4
  %6 = alloca ptr, align 8
  %7 = alloca i32, align 4
  %8 = alloca i32, align 4
  %9 = alloca i32, align 4
  %10 = alloca ptr, align 8
  %11 = alloca i32, align 4
  %12 = alloca i32, align 4
  %13 = alloca ptr, align 8
  %14 = alloca i64, align 8
  %15 = alloca i64, align 8
  store ptr %0, ptr %6, align 8, !tbaa !4
  store i32 %1, ptr %7, align 4, !tbaa !24
  store i32 %2, ptr %8, align 4, !tbaa !24
  store i32 %3, ptr %9, align 4, !tbaa !24
  call void @llvm.lifetime.start.p0(i64 8, ptr %10) #9
  %16 = load ptr, ptr %6, align 8, !tbaa !4
  %17 = getelementptr inbounds nuw %struct.lua_State, ptr %16, i32 0, i32 7
  %18 = load ptr, ptr %17, align 8, !tbaa !29
  %19 = load i32, ptr %7, align 4, !tbaa !24
  %20 = sext i32 %19 to i64
  %21 = getelementptr inbounds %union.TValue, ptr %18, i64 %20
  %22 = getelementptr inbounds %union.TValue, ptr %21, i64 -1
  store ptr %22, ptr %10, align 8, !tbaa !48
  %23 = load ptr, ptr %10, align 8, !tbaa !48
  %24 = load ptr, ptr %6, align 8, !tbaa !4
  %25 = getelementptr inbounds nuw %struct.lua_State, ptr %24, i32 0, i32 8
  %26 = load ptr, ptr %25, align 8, !tbaa !28
  %27 = icmp ult ptr %23, %26
  br i1 %27, label %28, label %134

28:                                               ; preds = %4
  %29 = load ptr, ptr %10, align 8, !tbaa !48
  %30 = load i64, ptr %29, align 8, !tbaa !23
  %31 = ashr i64 %30, 47
  %32 = trunc i64 %31 to i32
  %33 = icmp ult i32 %32, -14
  %34 = xor i1 %33, true
  %35 = xor i1 %34, true
  %36 = zext i1 %35 to i32
  %37 = sext i32 %36 to i64
  %38 = call i64 @llvm.expect.i64(i64 %37, i64 1)
  %39 = icmp ne i64 %38, 0
  br i1 %39, label %40, label %57

40:                                               ; preds = %28
  call void @llvm.lifetime.start.p0(i64 4, ptr %11) #9
  %41 = load ptr, ptr %10, align 8, !tbaa !48
  %42 = load double, ptr %41, align 8, !tbaa !23
  %43 = fptosi double %42 to i32
  store i32 %43, ptr %11, align 4, !tbaa !24
  %44 = load i32, ptr %11, align 4, !tbaa !24
  %45 = load i32, ptr %8, align 4, !tbaa !24
  %46 = icmp sge i32 %44, %45
  br i1 %46, label %47, label %53

47:                                               ; preds = %40
  %48 = load i32, ptr %11, align 4, !tbaa !24
  %49 = load i32, ptr %9, align 4, !tbaa !24
  %50 = icmp sle i32 %48, %49
  br i1 %50, label %51, label %53

51:                                               ; preds = %47
  %52 = load i32, ptr %11, align 4, !tbaa !24
  store i32 %52, ptr %5, align 4
  store i32 1, ptr %12, align 4
  br label %54

53:                                               ; preds = %47, %40
  store i32 0, ptr %12, align 4
  br label %54

54:                                               ; preds = %53, %51
  call void @llvm.lifetime.end.p0(i64 4, ptr %11) #9
  %55 = load i32, ptr %12, align 4
  switch i32 %55, label %138 [
    i32 0, label %56
  ]

56:                                               ; preds = %54
  br label %131

57:                                               ; preds = %28
  %58 = load ptr, ptr %10, align 8, !tbaa !48
  %59 = load i64, ptr %58, align 8, !tbaa !23
  %60 = ashr i64 %59, 47
  %61 = trunc i64 %60 to i32
  %62 = icmp eq i32 %61, -11
  br i1 %62, label %63, label %129

63:                                               ; preds = %57
  call void @llvm.lifetime.start.p0(i64 8, ptr %13) #9
  %64 = load ptr, ptr %10, align 8, !tbaa !48
  %65 = getelementptr inbounds nuw %struct.GCRef, ptr %64, i32 0, i32 0
  %66 = load i64, ptr %65, align 8, !tbaa !23
  %67 = and i64 %66, 140737488355327
  %68 = inttoptr i64 %67 to ptr
  store ptr %68, ptr %13, align 8, !tbaa !71
  %69 = load ptr, ptr %13, align 8, !tbaa !71
  %70 = getelementptr inbounds nuw %struct.GCcdata, ptr %69, i32 0, i32 3
  %71 = load i16, ptr %70, align 2, !tbaa !73
  %72 = zext i16 %71 to i32
  %73 = icmp eq i32 %72, 11
  br i1 %73, label %74, label %94

74:                                               ; preds = %63
  call void @llvm.lifetime.start.p0(i64 8, ptr %14) #9
  %75 = load ptr, ptr %13, align 8, !tbaa !71
  %76 = getelementptr inbounds %struct.GCcdata, ptr %75, i64 1
  %77 = load i64, ptr %76, align 8, !tbaa !30
  store i64 %77, ptr %14, align 8, !tbaa !30
  %78 = load i64, ptr %14, align 8, !tbaa !30
  %79 = load i32, ptr %8, align 4, !tbaa !24
  %80 = sext i32 %79 to i64
  %81 = icmp sge i64 %78, %80
  br i1 %81, label %82, label %90

82:                                               ; preds = %74
  %83 = load i64, ptr %14, align 8, !tbaa !30
  %84 = load i32, ptr %9, align 4, !tbaa !24
  %85 = sext i32 %84 to i64
  %86 = icmp sle i64 %83, %85
  br i1 %86, label %87, label %90

87:                                               ; preds = %82
  %88 = load i64, ptr %14, align 8, !tbaa !30
  %89 = trunc i64 %88 to i32
  store i32 %89, ptr %5, align 4
  store i32 1, ptr %12, align 4
  br label %91

90:                                               ; preds = %82, %74
  store i32 0, ptr %12, align 4
  br label %91

91:                                               ; preds = %90, %87
  call void @llvm.lifetime.end.p0(i64 8, ptr %14) #9
  %92 = load i32, ptr %12, align 4
  switch i32 %92, label %126 [
    i32 0, label %93
  ]

93:                                               ; preds = %91
  br label %125

94:                                               ; preds = %63
  %95 = load ptr, ptr %13, align 8, !tbaa !71
  %96 = getelementptr inbounds nuw %struct.GCcdata, ptr %95, i32 0, i32 3
  %97 = load i16, ptr %96, align 2, !tbaa !73
  %98 = zext i16 %97 to i32
  %99 = icmp eq i32 %98, 12
  br i1 %99, label %100, label %123

100:                                              ; preds = %94
  call void @llvm.lifetime.start.p0(i64 8, ptr %15) #9
  %101 = load ptr, ptr %13, align 8, !tbaa !71
  %102 = getelementptr inbounds %struct.GCcdata, ptr %101, i64 1
  %103 = load i64, ptr %102, align 8, !tbaa !30
  store i64 %103, ptr %15, align 8, !tbaa !30
  %104 = load i32, ptr %8, align 4, !tbaa !24
  %105 = icmp slt i32 %104, 0
  br i1 %105, label %111, label %106

106:                                              ; preds = %100
  %107 = load i64, ptr %15, align 8, !tbaa !30
  %108 = load i32, ptr %8, align 4, !tbaa !24
  %109 = sext i32 %108 to i64
  %110 = icmp uge i64 %107, %109
  br i1 %110, label %111, label %119

111:                                              ; preds = %106, %100
  %112 = load i64, ptr %15, align 8, !tbaa !30
  %113 = load i32, ptr %9, align 4, !tbaa !24
  %114 = sext i32 %113 to i64
  %115 = icmp ule i64 %112, %114
  br i1 %115, label %116, label %119

116:                                              ; preds = %111
  %117 = load i64, ptr %15, align 8, !tbaa !30
  %118 = trunc i64 %117 to i32
  store i32 %118, ptr %5, align 4
  store i32 1, ptr %12, align 4
  br label %120

119:                                              ; preds = %111, %106
  store i32 0, ptr %12, align 4
  br label %120

120:                                              ; preds = %119, %116
  call void @llvm.lifetime.end.p0(i64 8, ptr %15) #9
  %121 = load i32, ptr %12, align 4
  switch i32 %121, label %126 [
    i32 0, label %122
  ]

122:                                              ; preds = %120
  br label %124

123:                                              ; preds = %94
  store i32 2, ptr %12, align 4
  br label %126

124:                                              ; preds = %122
  br label %125

125:                                              ; preds = %124, %93
  store i32 0, ptr %12, align 4
  br label %126

126:                                              ; preds = %123, %125, %120, %91
  call void @llvm.lifetime.end.p0(i64 8, ptr %13) #9
  %127 = load i32, ptr %12, align 4
  switch i32 %127, label %138 [
    i32 0, label %128
    i32 2, label %135
  ]

128:                                              ; preds = %126
  br label %130

129:                                              ; preds = %57
  br label %135

130:                                              ; preds = %128
  br label %131

131:                                              ; preds = %130, %56
  %132 = load ptr, ptr %6, align 8, !tbaa !4
  %133 = load i32, ptr %7, align 4, !tbaa !24
  call void @lj_err_arg(ptr noundef %132, i32 noundef %133, i32 noundef 1094) #10
  unreachable

134:                                              ; preds = %4
  br label %135

135:                                              ; preds = %134, %126, %129
  %136 = load ptr, ptr %6, align 8, !tbaa !4
  %137 = load i32, ptr %7, align 4, !tbaa !24
  call void @lj_err_argt(ptr noundef %136, i32 noundef %137, i32 noundef 3) #10
  unreachable

138:                                              ; preds = %126, %54
  call void @llvm.lifetime.end.p0(i64 8, ptr %10) #9
  %139 = load i32, ptr %5, align 4
  ret i32 %139
}