; Function Attrs: nounwind uwtable
define hidden i32 @lj_lib_checkintrange(ptr noundef %0, i32 noundef %1, i32 noundef %2, i32 noundef %3) local_unnamed_addr #0 {
  %5 = getelementptr inbounds nuw i8, ptr %0, i64 32
  %6 = load ptr, ptr %5, align 8, !tbaa !17
  %7 = sext i32 %1 to i64
  %8 = getelementptr inbounds %union.TValue, ptr %6, i64 %7
  %9 = getelementptr inbounds i8, ptr %8, i64 -8
  %10 = getelementptr inbounds nuw i8, ptr %0, i64 40
  %11 = load ptr, ptr %10, align 8, !tbaa !16
  %12 = icmp ult ptr %9, %11
  br i1 %12, label %13, label %40

13:                                               ; preds = %4
  %14 = load i64, ptr %9, align 8
  %15 = ashr i64 %14, 47
  %16 = icmp ult i64 %15, -14
  br i1 %16, label %17, label %20, !prof !18

17:                                               ; preds = %13
  %18 = bitcast i64 %14 to double
  %19 = fptosi double %18 to i32
  %.not51 = icmp sgt i32 %2, %19
  %.not52 = icmp slt i32 %3, %19
  %or.cond = or i1 %.not51, %.not52
  br i1 %or.cond, label %.critedge, label %.thread

20:                                               ; preds = %13
  %21 = icmp eq i64 %15, -11
  br i1 %21, label %22, label %40

22:                                               ; preds = %20
  %23 = and i64 %14, 140737488355327
  %24 = inttoptr i64 %23 to ptr
  %25 = getelementptr inbounds nuw i8, ptr %24, i64 10
  %26 = load i16, ptr %25, align 2, !tbaa !52
  switch i16 %26, label %40 [
    i16 11, label %27
    i16 12, label %33
  ]

27:                                               ; preds = %22
  %28 = getelementptr inbounds nuw i8, ptr %24, i64 16
  %29 = load i64, ptr %28, align 8, !tbaa !54
  %30 = sext i32 %2 to i64
  %.not49 = icmp slt i64 %29, %30
  %31 = sext i32 %3 to i64
  %.not50 = icmp sgt i64 %29, %31
  %or.cond53 = or i1 %.not49, %.not50
  %32 = trunc nsw i64 %29 to i32
  br i1 %or.cond53, label %.critedge, label %.thread

33:                                               ; preds = %22
  %34 = getelementptr inbounds nuw i8, ptr %24, i64 16
  %35 = load i64, ptr %34, align 8, !tbaa !54
  %36 = icmp sgt i32 %2, -1
  %37 = zext nneg i32 %2 to i64
  %.not = icmp ult i64 %35, %37
  %or.cond54 = select i1 %36, i1 %.not, i1 false
  %38 = sext i32 %3 to i64
  %.not48 = icmp ugt i64 %35, %38
  %or.cond55 = select i1 %or.cond54, i1 true, i1 %.not48
  %39 = trunc i64 %35 to i32
  br i1 %or.cond55, label %.critedge, label %.thread

.critedge:                                        ; preds = %33, %27, %17
  tail call void @lj_err_arg(ptr noundef nonnull %0, i32 noundef %1, i32 noundef 1094) #9
  unreachable

40:                                               ; preds = %22, %4, %20
  tail call void @lj_err_argt(ptr noundef nonnull %0, i32 noundef %1, i32 noundef 3) #9
  unreachable

.thread:                                          ; preds = %33, %27, %17
  %.1 = phi i32 [ %19, %17 ], [ %39, %33 ], [ %32, %27 ]
  ret i32 %.1
}